(lp0
(S'cppflags'
p1
ccopy_reg
_reconstructor
p2
(cino.utils
SpaceList
p3
c__builtin__
list
p4
(lp5
S'-mmcu=atmega328p'
p6
aS'-DF_CPU=16000000L'
p7
aS'-DARDUINO=105'
p8
aS'-I/usr/share/arduino/hardware/arduino/cores/arduino'
p9
aS'-ffunction-sections'
p10
aS'-fdata-sections'
p11
aS'-g'
p12
aS'-Os'
p13
aS'-w'
p14
aS'-I/usr/share/arduino/hardware/arduino/variants/standard'
p15
aS'-I/usr/share/arduino/libraries/SoftwareSerial'
p16
aS'-I/usr/share/arduino/hardware/arduino/cores/arduino'
p17
aS'-I/usr/share/arduino/hardware/arduino/cores/arduino/avr-libc'
p18
atp19
Rp20
tp21
a(S'version.txt'
p22
S'/usr/share/arduino/lib/version.txt'
p23
tp24
a(S'used_libs'
p25
(lp26
S'/usr/share/arduino/libraries/SoftwareSerial'
p27
aS'/usr/share/arduino/hardware/arduino/cores/arduino'
p28
atp29
a(S'cc'
p30
S'/usr/share/arduino/hardware/tools/avr/bin/avr-gcc'
p31
tp32
a(S'make'
p33
S'/usr/share/arduino/hardware/tools/avr/bin/make'
p34
tp35
a(S'build_dir'
p36
S'.build/uno'
p37
tp38
a(S'arduino_core_dir'
p39
g28
tp40
a(S'boards.txt'
p41
S'/usr/share/arduino/hardware/arduino/boards.txt'
p42
tp43
a(S'cxxflags'
p44
g2
(g3
g4
(lp45
S'-fno-exceptions'
p46
atp47
Rp48
tp49
a(S'arduino_variants_dir'
p50
S'/usr/share/arduino/hardware/arduino/variants'
p51
tp52
a(S'deps'
p53
g2
(g3
g4
(lp54
S'.build/uno/src/dependencies.d'
p55
aS'.build/uno/arduino/dependencies.d'
p56
aS'.build/uno/SoftwareSerial/dependencies.d'
p57
atp58
Rp59
tp60
a(S'ar'
p61
S'/usr/share/arduino/hardware/tools/avr/bin/avr-ar'
p62
tp63
a(S'names'
p64
(dp65
S'cpp'
p66
S'%s.cpp'
p67
sS'obj'
p68
S'%s.o'
p69
sg53
S'%s.d'
p70
sS'lib'
p71
S'lib%s.a'
p72
stp73
a(S'cflags'
p74
g2
(g3
g4
(lp75
tp76
Rp77
tp78
a(S'ldflags'
p79
g2
(g3
g4
(lp80
g6
aS'-Wl,-Os'
p81
aS'-Wl,--gc-sections'
p82
atp83
Rp84
tp85
a(S'arduino_libraries_dir'
p86
S'/usr/share/arduino/libraries'
p87
tp88
a(S'arduino_lib_version'
p89
g2
(cino.environment
Version
p90
c__builtin__
tuple
p91
(I1
I0
I5
tp92
tp93
Rp94
tp95
a(S'objcopy'
p96
S'/usr/share/arduino/hardware/tools/avr/bin/avr-objcopy'
p97
tp98
a(S'board_models'
p99
cino.environment
BoardModels
p100
((lp101
(lp102
S'uno'
p103
a(dp104
S'build'
p105
(dp106
S'core'
p107
S'arduino'
p108
sS'mcu'
p109
S'atmega328p'
p110
sS'f_cpu'
p111
S'16000000L'
p112
sS'variant'
p113
S'standard'
p114
ssS'bootloader'
p115
(dp116
S'extended_fuses'
p117
S'0x05'
p118
sS'high_fuses'
p119
S'0xde'
p120
sS'low_fuses'
p121
S'0xff'
p122
sS'lock_bits'
p123
S'0x0F'
p124
sS'file'
p125
S'optiboot_atmega328.hex'
p126
sS'path'
p127
S'optiboot'
p128
sS'unlock_bits'
p129
S'0x3F'
p130
ssS'name'
p131
S'Arduino Uno'
p132
sS'upload'
p133
(dp134
S'speed'
p135
S'115200'
p136
sS'maximum_size'
p137
S'32256'
p138
sS'protocol'
p139
S'arduino'
p140
ssaa(lp141
S'atmega328'
p142
a(dp143
S'build'
p144
(dp145
S'core'
p146
S'arduino'
p147
sS'mcu'
p148
S'atmega328p'
p149
sS'f_cpu'
p150
S'16000000L'
p151
sS'variant'
p152
S'standard'
p153
ssS'bootloader'
p154
(dp155
S'extended_fuses'
p156
S'0x05'
p157
sS'high_fuses'
p158
S'0xDA'
p159
sS'low_fuses'
p160
S'0xFF'
p161
sS'lock_bits'
p162
S'0x0F'
p163
sS'file'
p164
S'ATmegaBOOT_168_atmega328.hex'
p165
sS'path'
p166
S'atmega'
p167
sS'unlock_bits'
p168
S'0x3F'
p169
ssS'name'
p170
S'Arduino Duemilanove w/ ATmega328'
p171
sS'upload'
p172
(dp173
S'speed'
p174
S'57600'
p175
sS'maximum_size'
p176
S'30720'
p177
sS'protocol'
p178
S'arduino'
p179
ssaa(lp180
S'diecimila'
p181
a(dp182
S'build'
p183
(dp184
S'core'
p185
S'arduino'
p186
sS'mcu'
p187
S'atmega168'
p188
sS'f_cpu'
p189
S'16000000L'
p190
sS'variant'
p191
S'standard'
p192
ssS'bootloader'
p193
(dp194
S'extended_fuses'
p195
S'0x00'
p196
sS'high_fuses'
p197
S'0xdd'
p198
sS'low_fuses'
p199
S'0xff'
p200
sS'lock_bits'
p201
S'0x0F'
p202
sS'file'
p203
S'ATmegaBOOT_168_diecimila.hex'
p204
sS'path'
p205
S'atmega'
p206
sS'unlock_bits'
p207
S'0x3F'
p208
ssS'name'
p209
S'Arduino Diecimila or Duemilanove w/ ATmega168'
p210
sS'upload'
p211
(dp212
S'speed'
p213
S'19200'
p214
sS'maximum_size'
p215
S'14336'
p216
sS'protocol'
p217
S'arduino'
p218
ssaa(lp219
S'nano328'
p220
a(dp221
S'build'
p222
(dp223
S'core'
p224
S'arduino'
p225
sS'mcu'
p226
S'atmega328p'
p227
sS'f_cpu'
p228
S'16000000L'
p229
sS'variant'
p230
S'eightanaloginputs'
p231
ssS'bootloader'
p232
(dp233
S'extended_fuses'
p234
S'0x05'
p235
sS'high_fuses'
p236
S'0xDA'
p237
sS'low_fuses'
p238
S'0xFF'
p239
sS'lock_bits'
p240
S'0x0F'
p241
sS'file'
p242
S'ATmegaBOOT_168_atmega328.hex'
p243
sS'path'
p244
S'atmega'
p245
sS'unlock_bits'
p246
S'0x3F'
p247
ssS'name'
p248
S'Arduino Nano w/ ATmega328'
p249
sS'upload'
p250
(dp251
S'speed'
p252
S'57600'
p253
sS'maximum_size'
p254
S'30720'
p255
sS'protocol'
p256
S'arduino'
p257
ssaa(lp258
S'nano'
p259
a(dp260
S'build'
p261
(dp262
S'core'
p263
S'arduino'
p264
sS'mcu'
p265
S'atmega168'
p266
sS'f_cpu'
p267
S'16000000L'
p268
sS'variant'
p269
S'eightanaloginputs'
p270
ssS'bootloader'
p271
(dp272
S'extended_fuses'
p273
S'0x00'
p274
sS'high_fuses'
p275
S'0xdd'
p276
sS'low_fuses'
p277
S'0xff'
p278
sS'lock_bits'
p279
S'0x0F'
p280
sS'file'
p281
S'ATmegaBOOT_168_diecimila.hex'
p282
sS'path'
p283
S'atmega'
p284
sS'unlock_bits'
p285
S'0x3F'
p286
ssS'name'
p287
S'Arduino Nano w/ ATmega168'
p288
sS'upload'
p289
(dp290
S'speed'
p291
S'19200'
p292
sS'maximum_size'
p293
S'14336'
p294
sS'protocol'
p295
S'arduino'
p296
ssaa(lp297
S'mega2560'
p298
a(dp299
S'build'
p300
(dp301
S'core'
p302
S'arduino'
p303
sS'mcu'
p304
S'atmega2560'
p305
sS'f_cpu'
p306
S'16000000L'
p307
sS'variant'
p308
S'mega'
p309
ssS'bootloader'
p310
(dp311
S'extended_fuses'
p312
S'0xFD'
p313
sS'high_fuses'
p314
S'0xD8'
p315
sS'low_fuses'
p316
S'0xFF'
p317
sS'lock_bits'
p318
S'0x0F'
p319
sS'file'
p320
S'stk500boot_v2_mega2560.hex'
p321
sS'path'
p322
S'stk500v2'
p323
sS'unlock_bits'
p324
S'0x3F'
p325
ssS'name'
p326
S'Arduino Mega 2560 or Mega ADK'
p327
sS'upload'
p328
(dp329
S'speed'
p330
S'115200'
p331
sS'maximum_size'
p332
S'258048'
p333
sS'protocol'
p334
S'wiring'
p335
ssaa(lp336
S'mega'
p337
a(dp338
S'build'
p339
(dp340
S'core'
p341
S'arduino'
p342
sS'mcu'
p343
S'atmega1280'
p344
sS'f_cpu'
p345
S'16000000L'
p346
sS'variant'
p347
S'mega'
p348
ssS'bootloader'
p349
(dp350
S'extended_fuses'
p351
S'0xF5'
p352
sS'high_fuses'
p353
S'0xDA'
p354
sS'low_fuses'
p355
S'0xFF'
p356
sS'lock_bits'
p357
S'0x0F'
p358
sS'file'
p359
S'ATmegaBOOT_168_atmega1280.hex'
p360
sS'path'
p361
S'atmega'
p362
sS'unlock_bits'
p363
S'0x3F'
p364
ssS'name'
p365
S'Arduino Mega (ATmega1280)'
p366
sS'upload'
p367
(dp368
S'speed'
p369
S'57600'
p370
sS'maximum_size'
p371
S'126976'
p372
sS'protocol'
p373
S'arduino'
p374
ssaa(lp375
S'leonardo'
p376
a(dp377
S'build'
p378
(dp379
S'core'
p380
S'arduino'
p381
sS'f_cpu'
p382
S'16000000L'
p383
sS'vid'
p384
S'0x2341'
p385
sS'pid'
p386
S'0x8036'
p387
sS'variant'
p388
S'leonardo'
p389
sS'mcu'
p390
S'atmega32u4'
p391
ssS'bootloader'
p392
(dp393
S'extended_fuses'
p394
S'0xcb'
p395
sS'high_fuses'
p396
S'0xd8'
p397
sS'low_fuses'
p398
S'0xff'
p399
sS'lock_bits'
p400
S'0x2F'
p401
sS'file'
p402
S'Caterina-Leonardo.hex'
p403
sS'path'
p404
S'caterina'
p405
sS'unlock_bits'
p406
S'0x3F'
p407
ssS'name'
p408
S'Arduino Leonardo'
p409
sS'upload'
p410
(dp411
S'speed'
p412
S'57600'
p413
sS'maximum_size'
p414
S'28672'
p415
sS'protocol'
p416
S'avr109'
p417
sS'disable_flushing'
p418
S'true'
p419
ssaa(lp420
S'esplora'
p421
a(dp422
S'build'
p423
(dp424
S'core'
p425
S'arduino'
p426
sS'f_cpu'
p427
S'16000000L'
p428
sS'vid'
p429
S'0x2341'
p430
sS'pid'
p431
S'0x803C'
p432
sS'variant'
p433
S'leonardo'
p434
sS'mcu'
p435
S'atmega32u4'
p436
ssS'bootloader'
p437
(dp438
S'extended_fuses'
p439
S'0xcb'
p440
sS'high_fuses'
p441
S'0xd8'
p442
sS'low_fuses'
p443
S'0xff'
p444
sS'lock_bits'
p445
S'0x2F'
p446
sS'file'
p447
S'Caterina-Esplora.hex'
p448
sS'path'
p449
S'caterina'
p450
sS'unlock_bits'
p451
S'0x3F'
p452
ssS'name'
p453
S'Arduino Esplora'
p454
sS'upload'
p455
(dp456
S'speed'
p457
S'57600'
p458
sS'maximum_size'
p459
S'28672'
p460
sS'protocol'
p461
S'avr109'
p462
sS'disable_flushing'
p463
S'true'
p464
ssaa(lp465
S'micro'
p466
a(dp467
S'build'
p468
(dp469
S'core'
p470
S'arduino'
p471
sS'f_cpu'
p472
S'16000000L'
p473
sS'vid'
p474
S'0x2341'
p475
sS'pid'
p476
S'0x8037'
p477
sS'variant'
p478
S'micro'
p479
sS'mcu'
p480
S'atmega32u4'
p481
ssS'bootloader'
p482
(dp483
S'extended_fuses'
p484
S'0xcb'
p485
sS'high_fuses'
p486
S'0xd8'
p487
sS'low_fuses'
p488
S'0xff'
p489
sS'lock_bits'
p490
S'0x2F'
p491
sS'file'
p492
S'Caterina-Micro.hex'
p493
sS'path'
p494
S'caterina'
p495
sS'unlock_bits'
p496
S'0x3F'
p497
ssS'name'
p498
S'Arduino Micro'
p499
sS'upload'
p500
(dp501
S'speed'
p502
S'57600'
p503
sS'maximum_size'
p504
S'28672'
p505
sS'protocol'
p506
S'avr109'
p507
sS'disable_flushing'
p508
S'true'
p509
ssaa(lp510
S'mini328'
p511
a(dp512
S'build'
p513
(dp514
S'core'
p515
S'arduino'
p516
sS'mcu'
p517
S'atmega328p'
p518
sS'f_cpu'
p519
S'16000000L'
p520
sS'variant'
p521
S'eightanaloginputs'
p522
ssS'bootloader'
p523
(dp524
S'extended_fuses'
p525
S'0x05'
p526
sS'high_fuses'
p527
S'0xd8'
p528
sS'low_fuses'
p529
S'0xff'
p530
sS'lock_bits'
p531
S'0x0F'
p532
sS'file'
p533
S'optiboot_atmega328-Mini.hex'
p534
sS'path'
p535
S'optiboot'
p536
sS'unlock_bits'
p537
S'0x3F'
p538
ssS'name'
p539
S'Arduino Mini w/ ATmega328'
p540
sS'upload'
p541
(dp542
S'speed'
p543
S'115200'
p544
sS'maximum_size'
p545
S'28672'
p546
sS'protocol'
p547
S'arduino'
p548
ssaa(lp549
S'mini'
p550
a(dp551
S'build'
p552
(dp553
S'core'
p554
S'arduino'
p555
sS'mcu'
p556
S'atmega168'
p557
sS'f_cpu'
p558
S'16000000L'
p559
sS'variant'
p560
S'eightanaloginputs'
p561
ssS'bootloader'
p562
(dp563
S'extended_fuses'
p564
S'0x00'
p565
sS'high_fuses'
p566
S'0xdd'
p567
sS'low_fuses'
p568
S'0xff'
p569
sS'lock_bits'
p570
S'0x0F'
p571
sS'file'
p572
S'ATmegaBOOT_168_ng.hex'
p573
sS'path'
p574
S'atmega'
p575
sS'unlock_bits'
p576
S'0x3F'
p577
ssS'name'
p578
S'Arduino Mini w/ ATmega168'
p579
sS'upload'
p580
(dp581
S'speed'
p582
S'19200'
p583
sS'maximum_size'
p584
S'14336'
p585
sS'protocol'
p586
S'arduino'
p587
ssaa(lp588
S'ethernet'
p589
a(dp590
S'build'
p591
(dp592
S'f_cpu'
p593
S'16000000L'
p594
sS'mcu'
p595
S'atmega328p'
p596
sS'variant'
p597
S'standard'
p598
sS'core'
p599
S'arduino'
p600
ssS'bootloader'
p601
(dp602
S'extended_fuses'
p603
S'0x05'
p604
sS'high_fuses'
p605
S'0xde'
p606
sS'low_fuses'
p607
S'0xff'
p608
sS'lock_bits'
p609
S'0x0F'
p610
sS'file'
p611
S'optiboot_atmega328.hex'
p612
sS'path'
p613
S'optiboot'
p614
sS'unlock_bits'
p615
S'0x3F'
p616
ssS'name'
p617
S'Arduino Ethernet'
p618
sS'upload'
p619
(dp620
S'speed'
p621
S'115200'
p622
sS'maximum_size'
p623
S'32256'
p624
sS'protocol'
p625
S'arduino'
p626
ssaa(lp627
S'fio'
p628
a(dp629
S'build'
p630
(dp631
S'core'
p632
S'arduino'
p633
sS'mcu'
p634
S'atmega328p'
p635
sS'f_cpu'
p636
S'8000000L'
p637
sS'variant'
p638
S'eightanaloginputs'
p639
ssS'bootloader'
p640
(dp641
S'extended_fuses'
p642
S'0x05'
p643
sS'high_fuses'
p644
S'0xDA'
p645
sS'low_fuses'
p646
S'0xFF'
p647
sS'lock_bits'
p648
S'0x0F'
p649
sS'file'
p650
S'ATmegaBOOT_168_atmega328_pro_8MHz.hex'
p651
sS'path'
p652
S'arduino:atmega'
p653
sS'unlock_bits'
p654
S'0x3F'
p655
ssS'name'
p656
S'Arduino Fio'
p657
sS'upload'
p658
(dp659
S'speed'
p660
S'57600'
p661
sS'maximum_size'
p662
S'30720'
p663
sS'protocol'
p664
S'arduino'
p665
ssaa(lp666
S'bt328'
p667
a(dp668
S'build'
p669
(dp670
S'core'
p671
S'arduino'
p672
sS'mcu'
p673
S'atmega328p'
p674
sS'f_cpu'
p675
S'16000000L'
p676
sS'variant'
p677
S'eightanaloginputs'
p678
ssS'bootloader'
p679
(dp680
S'extended_fuses'
p681
S'0x05'
p682
sS'high_fuses'
p683
S'0xd8'
p684
sS'low_fuses'
p685
S'0xff'
p686
sS'lock_bits'
p687
S'0x0F'
p688
sS'file'
p689
S'ATmegaBOOT_168_atmega328_bt.hex'
p690
sS'path'
p691
S'bt'
p692
sS'unlock_bits'
p693
S'0x3F'
p694
ssS'name'
p695
S'Arduino BT w/ ATmega328'
p696
sS'upload'
p697
(dp698
S'speed'
p699
S'19200'
p700
sS'maximum_size'
p701
S'28672'
p702
sS'protocol'
p703
S'arduino'
p704
sS'disable_flushing'
p705
S'true'
p706
ssaa(lp707
S'bt'
p708
a(dp709
S'build'
p710
(dp711
S'core'
p712
S'arduino'
p713
sS'mcu'
p714
S'atmega168'
p715
sS'f_cpu'
p716
S'16000000L'
p717
sS'variant'
p718
S'eightanaloginputs'
p719
ssS'bootloader'
p720
(dp721
S'extended_fuses'
p722
S'0x00'
p723
sS'high_fuses'
p724
S'0xdd'
p725
sS'low_fuses'
p726
S'0xff'
p727
sS'lock_bits'
p728
S'0x0F'
p729
sS'file'
p730
S'ATmegaBOOT_168.hex'
p731
sS'path'
p732
S'bt'
p733
sS'unlock_bits'
p734
S'0x3F'
p735
ssS'name'
p736
S'Arduino BT w/ ATmega168'
p737
sS'upload'
p738
(dp739
S'speed'
p740
S'19200'
p741
sS'maximum_size'
p742
S'14336'
p743
sS'protocol'
p744
S'arduino'
p745
sS'disable_flushing'
p746
S'true'
p747
ssaa(lp748
S'LilyPadUSB'
p749
a(dp750
S'build'
p751
(dp752
S'core'
p753
S'arduino'
p754
sS'f_cpu'
p755
S'8000000L'
p756
sS'vid'
p757
S'0x1B4F'
p758
sS'pid'
p759
S'0x9208'
p760
sS'variant'
p761
S'leonardo'
p762
sS'mcu'
p763
S'atmega32u4'
p764
ssS'bootloader'
p765
(dp766
S'extended_fuses'
p767
S'0xce'
p768
sS'high_fuses'
p769
S'0xd8'
p770
sS'low_fuses'
p771
S'0xff'
p772
sS'lock_bits'
p773
S'0x2F'
p774
sS'file'
p775
S'Caterina-LilyPadUSB.hex'
p776
sS'path'
p777
S'caterina-LilyPadUSB'
p778
sS'unlock_bits'
p779
S'0x3F'
p780
ssS'name'
p781
S'LilyPad Arduino USB'
p782
sS'upload'
p783
(dp784
S'speed'
p785
S'57600'
p786
sS'maximum_size'
p787
S'28672'
p788
sS'protocol'
p789
S'avr109'
p790
sS'disable_flushing'
p791
S'true'
p792
ssaa(lp793
S'lilypad328'
p794
a(dp795
S'build'
p796
(dp797
S'core'
p798
S'arduino'
p799
sS'mcu'
p800
S'atmega328p'
p801
sS'f_cpu'
p802
S'8000000L'
p803
sS'variant'
p804
S'standard'
p805
ssS'bootloader'
p806
(dp807
S'extended_fuses'
p808
S'0x05'
p809
sS'high_fuses'
p810
S'0xDA'
p811
sS'low_fuses'
p812
S'0xFF'
p813
sS'lock_bits'
p814
S'0x0F'
p815
sS'file'
p816
S'ATmegaBOOT_168_atmega328_pro_8MHz.hex'
p817
sS'path'
p818
S'atmega'
p819
sS'unlock_bits'
p820
S'0x3F'
p821
ssS'name'
p822
S'LilyPad Arduino w/ ATmega328'
p823
sS'upload'
p824
(dp825
S'speed'
p826
S'57600'
p827
sS'maximum_size'
p828
S'30720'
p829
sS'protocol'
p830
S'arduino'
p831
ssaa(lp832
S'lilypad'
p833
a(dp834
S'build'
p835
(dp836
S'core'
p837
S'arduino'
p838
sS'mcu'
p839
S'atmega168'
p840
sS'f_cpu'
p841
S'8000000L'
p842
sS'variant'
p843
S'standard'
p844
ssS'bootloader'
p845
(dp846
S'extended_fuses'
p847
S'0x00'
p848
sS'high_fuses'
p849
S'0xdd'
p850
sS'low_fuses'
p851
S'0xe2'
p852
sS'lock_bits'
p853
S'0x0F'
p854
sS'file'
p855
S'LilyPadBOOT_168.hex'
p856
sS'path'
p857
S'lilypad'
p858
sS'unlock_bits'
p859
S'0x3F'
p860
ssS'name'
p861
S'LilyPad Arduino w/ ATmega168'
p862
sS'upload'
p863
(dp864
S'speed'
p865
S'19200'
p866
sS'maximum_size'
p867
S'14336'
p868
sS'protocol'
p869
S'arduino'
p870
ssaa(lp871
S'pro5v328'
p872
a(dp873
S'build'
p874
(dp875
S'core'
p876
S'arduino'
p877
sS'mcu'
p878
S'atmega328p'
p879
sS'f_cpu'
p880
S'16000000L'
p881
sS'variant'
p882
S'standard'
p883
ssS'bootloader'
p884
(dp885
S'extended_fuses'
p886
S'0x05'
p887
sS'high_fuses'
p888
S'0xDA'
p889
sS'low_fuses'
p890
S'0xFF'
p891
sS'lock_bits'
p892
S'0x0F'
p893
sS'file'
p894
S'ATmegaBOOT_168_atmega328.hex'
p895
sS'path'
p896
S'atmega'
p897
sS'unlock_bits'
p898
S'0x3F'
p899
ssS'name'
p900
S'Arduino Pro or Pro Mini (5V, 16 MHz) w/ ATmega328'
p901
sS'upload'
p902
(dp903
S'speed'
p904
S'57600'
p905
sS'maximum_size'
p906
S'30720'
p907
sS'protocol'
p908
S'arduino'
p909
ssaa(lp910
S'pro5v'
p911
a(dp912
S'build'
p913
(dp914
S'core'
p915
S'arduino'
p916
sS'mcu'
p917
S'atmega168'
p918
sS'f_cpu'
p919
S'16000000L'
p920
sS'variant'
p921
S'standard'
p922
ssS'bootloader'
p923
(dp924
S'extended_fuses'
p925
S'0x00'
p926
sS'high_fuses'
p927
S'0xdd'
p928
sS'low_fuses'
p929
S'0xff'
p930
sS'lock_bits'
p931
S'0x0F'
p932
sS'file'
p933
S'ATmegaBOOT_168_diecimila.hex'
p934
sS'path'
p935
S'atmega'
p936
sS'unlock_bits'
p937
S'0x3F'
p938
ssS'name'
p939
S'Arduino Pro or Pro Mini (5V, 16 MHz) w/ ATmega168'
p940
sS'upload'
p941
(dp942
S'speed'
p943
S'19200'
p944
sS'maximum_size'
p945
S'14336'
p946
sS'protocol'
p947
S'arduino'
p948
ssaa(lp949
S'pro328'
p950
a(dp951
S'build'
p952
(dp953
S'core'
p954
S'arduino'
p955
sS'mcu'
p956
S'atmega328p'
p957
sS'f_cpu'
p958
S'8000000L'
p959
sS'variant'
p960
S'standard'
p961
ssS'bootloader'
p962
(dp963
S'extended_fuses'
p964
S'0x05'
p965
sS'high_fuses'
p966
S'0xDA'
p967
sS'low_fuses'
p968
S'0xFF'
p969
sS'lock_bits'
p970
S'0x0F'
p971
sS'file'
p972
S'ATmegaBOOT_168_atmega328_pro_8MHz.hex'
p973
sS'path'
p974
S'atmega'
p975
sS'unlock_bits'
p976
S'0x3F'
p977
ssS'name'
p978
S'Arduino Pro or Pro Mini (3.3V, 8 MHz) w/ ATmega328'
p979
sS'upload'
p980
(dp981
S'speed'
p982
S'57600'
p983
sS'maximum_size'
p984
S'30720'
p985
sS'protocol'
p986
S'arduino'
p987
ssaa(lp988
S'pro'
p989
a(dp990
S'build'
p991
(dp992
S'core'
p993
S'arduino'
p994
sS'mcu'
p995
S'atmega168'
p996
sS'f_cpu'
p997
S'8000000L'
p998
sS'variant'
p999
S'standard'
p1000
ssS'bootloader'
p1001
(dp1002
S'extended_fuses'
p1003
S'0x00'
p1004
sS'high_fuses'
p1005
S'0xdd'
p1006
sS'low_fuses'
p1007
S'0xc6'
p1008
sS'lock_bits'
p1009
S'0x0F'
p1010
sS'file'
p1011
S'ATmegaBOOT_168_pro_8MHz.hex'
p1012
sS'path'
p1013
S'atmega'
p1014
sS'unlock_bits'
p1015
S'0x3F'
p1016
ssS'name'
p1017
S'Arduino Pro or Pro Mini (3.3V, 8 MHz) w/ ATmega168'
p1018
sS'upload'
p1019
(dp1020
S'speed'
p1021
S'19200'
p1022
sS'maximum_size'
p1023
S'14336'
p1024
sS'protocol'
p1025
S'arduino'
p1026
ssaa(lp1027
S'atmega168'
p1028
a(dp1029
S'build'
p1030
(dp1031
S'core'
p1032
S'arduino'
p1033
sS'mcu'
p1034
S'atmega168'
p1035
sS'f_cpu'
p1036
S'16000000L'
p1037
sS'variant'
p1038
S'standard'
p1039
ssS'bootloader'
p1040
(dp1041
S'extended_fuses'
p1042
S'0x00'
p1043
sS'high_fuses'
p1044
S'0xdd'
p1045
sS'low_fuses'
p1046
S'0xff'
p1047
sS'lock_bits'
p1048
S'0x0F'
p1049
sS'file'
p1050
S'ATmegaBOOT_168_ng.hex'
p1051
sS'path'
p1052
S'atmega'
p1053
sS'unlock_bits'
p1054
S'0x3F'
p1055
ssS'name'
p1056
S'Arduino NG or older w/ ATmega168'
p1057
sS'upload'
p1058
(dp1059
S'speed'
p1060
S'19200'
p1061
sS'maximum_size'
p1062
S'14336'
p1063
sS'protocol'
p1064
S'arduino'
p1065
ssaa(lp1066
S'atmega8'
p1067
a(dp1068
S'build'
p1069
(dp1070
S'core'
p1071
S'arduino'
p1072
sS'mcu'
p1073
S'atmega8'
p1074
sS'f_cpu'
p1075
S'16000000L'
p1076
sS'variant'
p1077
S'standard'
p1078
ssS'bootloader'
p1079
(dp1080
S'high_fuses'
p1081
S'0xca'
p1082
sS'low_fuses'
p1083
S'0xdf'
p1084
sS'lock_bits'
p1085
S'0x0F'
p1086
sS'file'
p1087
S'ATmegaBOOT-prod-firmware-2009-11-07.hex'
p1088
sS'path'
p1089
S'atmega8'
p1090
sS'unlock_bits'
p1091
S'0x3F'
p1092
ssS'name'
p1093
S'Arduino NG or older w/ ATmega8'
p1094
sS'upload'
p1095
(dp1096
S'speed'
p1097
S'19200'
p1098
sS'maximum_size'
p1099
S'7168'
p1100
sS'protocol'
p1101
S'arduino'
p1102
ssaa(lp1103
S'robotControl'
p1104
a(dp1105
S'build'
p1106
(dp1107
S'core'
p1108
S'robot'
p1109
sS'f_cpu'
p1110
S'16000000L'
p1111
sS'vid'
p1112
S'0x2341'
p1113
sS'pid'
p1114
S'0x8038'
p1115
sS'variant'
p1116
S'robot_control'
p1117
sS'mcu'
p1118
S'atmega32u4'
p1119
ssS'bootloader'
p1120
(dp1121
S'extended_fuses'
p1122
S'0xcb'
p1123
sS'high_fuses'
p1124
S'0xd8'
p1125
sS'low_fuses'
p1126
S'0xff'
p1127
sS'lock_bits'
p1128
S'0x2F'
p1129
sS'file'
p1130
S'Caterina-Robot-Control.hex'
p1131
sS'path'
p1132
S'caterina-Arduino_Robot'
p1133
sS'unlock_bits'
p1134
S'0x3F'
p1135
ssS'name'
p1136
S'Arduino Robot Control'
p1137
sS'upload'
p1138
(dp1139
S'speed'
p1140
S'57600'
p1141
sS'maximum_size'
p1142
S'28672'
p1143
sS'protocol'
p1144
S'avr109'
p1145
sS'disable_flushing'
p1146
S'true'
p1147
ssaa(lp1148
S'robotMotor'
p1149
a(dp1150
S'build'
p1151
(dp1152
S'core'
p1153
S'robot'
p1154
sS'f_cpu'
p1155
S'16000000L'
p1156
sS'vid'
p1157
S'0x2341'
p1158
sS'pid'
p1159
S'0x8039'
p1160
sS'variant'
p1161
S'robot_motor'
p1162
sS'mcu'
p1163
S'atmega32u4'
p1164
ssS'bootloader'
p1165
(dp1166
S'extended_fuses'
p1167
S'0xcb'
p1168
sS'high_fuses'
p1169
S'0xd8'
p1170
sS'low_fuses'
p1171
S'0xff'
p1172
sS'lock_bits'
p1173
S'0x2F'
p1174
sS'file'
p1175
S'Caterina-Robot-Motor.hex'
p1176
sS'path'
p1177
S'caterina-Arduino_Robot'
p1178
sS'unlock_bits'
p1179
S'0x3F'
p1180
ssS'name'
p1181
S'Arduino Robot Motor'
p1182
sS'upload'
p1183
(dp1184
S'speed'
p1185
S'57600'
p1186
sS'maximum_size'
p1187
S'28672'
p1188
sS'protocol'
p1189
S'avr109'
p1190
sS'disable_flushing'
p1191
S'true'
p1192
ssaatp1193
Rp1194
(dp1195
S'default'
p1196
S'uno'
p1197
sbtp1198
a(S'cxx'
p1199
S'/usr/share/arduino/hardware/tools/avr/bin/avr-g++'
p1200
tp1201
a.